target datalayout = "e-m:e-p270:32:32-p271:32:32-p272:64:64-i64:64-i128:128-f80:128-n8:16:32:64-S128"
target triple = "x86_64-pc-linux-gnu"

%struct.lexbor_shs_entry_t = type { ptr, ptr, i64, i64 }
%struct.lxb_tag_data_t = type { %struct.lexbor_hash_entry, i64, i64, i8 }
%struct.lexbor_hash_entry = type { %union.anon, i64, ptr }
%union.anon = type { ptr, [16 x i8] }

@lexbor_hash_insert_lower = external global ptr, align 8

; Function Attrs: nounwind uwtable
define hidden ptr @lxb_tag_append_lower(ptr noundef %0, ptr noundef %1, i64 noundef %2) #0 {
  %4 = alloca ptr, align 8
  %5 = alloca ptr, align 8
  %6 = alloca ptr, align 8
  %7 = alloca i64, align 8
  %8 = alloca ptr, align 8
  %9 = alloca ptr, align 8
  store ptr %0, ptr %5, align 8
  store ptr %1, ptr %6, align 8
  store i64 %2, ptr %7, align 8
  %10 = load ptr, ptr %6, align 8
  %11 = load i64, ptr %7, align 8
  %12 = call ptr @lexbor_shs_entry_get_lower_static(ptr noundef @lxb_tag_res_shs_data_default, ptr noundef %10, i64 noundef %11)
  store ptr %12, ptr %9, align 8
  %13 = load ptr, ptr %9, align 8
  %14 = icmp ne ptr %13, null
  br i1 %14, label %15, label %19

15:                                               ; preds = %3
  %16 = load ptr, ptr %9, align 8
  %17 = getelementptr inbounds %struct.lexbor_shs_entry_t, ptr %16, i32 0, i32 1
  %18 = load ptr, ptr %17, align 8
  store ptr %18, ptr %4, align 8
  br label %34

19:                                               ; preds = %3
  %20 = load ptr, ptr %5, align 8
  %21 = load ptr, ptr @lexbor_hash_insert_lower, align 8
  %22 = load ptr, ptr %6, align 8
  %23 = load i64, ptr %7, align 8
  %24 = call ptr @lexbor_hash_insert(ptr noundef %20, ptr noundef %21, ptr noundef %22, i64 noundef %23)
  store ptr %24, ptr %8, align 8
  %25 = load ptr, ptr %8, align 8
  %26 = icmp eq ptr %25, null
  br i1 %26, label %27, label %28

27:                                               ; preds = %19
  store ptr null, ptr %4, align 8
  br label %34

28:                                               ; preds = %19
  %29 = load ptr, ptr %8, align 8
  %30 = ptrtoint ptr %29 to i64
  %31 = load ptr, ptr %8, align 8
  %32 = getelementptr inbounds %struct.lxb_tag_data_t, ptr %31, i32 0, i32 1
  store i64 %30, ptr %32, align 8
  %33 = load ptr, ptr %8, align 8
  store ptr %33, ptr %4, align 8
  br label %34

34:                                               ; preds = %28, %27, %15
  %35 = load ptr, ptr %4, align 8
  ret ptr %35
}