; Function Attrs: nounwind uwtable
define hidden ptr @lxb_tag_append_lower(ptr noundef %0, ptr noundef %1, i64 noundef %2) local_unnamed_addr #0 {
  %4 = tail call ptr @lexbor_shs_entry_get_lower_static(ptr noundef nonnull @lxb_tag_res_shs_data_default, ptr noundef %1, i64 noundef %2) #5
  %.not = icmp eq ptr %4, null
  br i1 %.not, label %8, label %5

5:                                                ; preds = %3
  %6 = getelementptr inbounds i8, ptr %4, i64 8
  %7 = load ptr, ptr %6, align 8
  br label %15

8:                                                ; preds = %3
  %9 = load ptr, ptr @lexbor_hash_insert_lower, align 8
  %10 = tail call ptr @lexbor_hash_insert(ptr noundef %0, ptr noundef %9, ptr noundef %1, i64 noundef %2) #5
  %11 = icmp eq ptr %10, null
  br i1 %11, label %15, label %12

12:                                               ; preds = %8
  %13 = ptrtoint ptr %10 to i64
  %14 = getelementptr inbounds i8, ptr %10, i64 40
  store i64 %13, ptr %14, align 8
  br label %15

15:                                               ; preds = %8, %12, %5
  %.0 = phi ptr [ %7, %5 ], [ %10, %12 ], [ null, %8 ]
  ret ptr %.0
}